; Function Attrs: mustprogress null_pointer_is_valid sspstrong uwtable
define void @_ZN14InfoProxyModel10appendInfoE7QString(ptr noundef align 8 dereferenceable_or_null(48) %0, ptr noundef %1) local_unnamed_addr #0 align 2 personality ptr @__gxx_personality_v0 {
  %3 = getelementptr inbounds nuw i8, ptr %0, i64 24
  %4 = getelementptr inbounds nuw i8, ptr %1, i64 8
  %5 = load ptr, ptr %4, align 8
  %6 = getelementptr inbounds nuw i8, ptr %1, i64 16
  %7 = load i64, ptr %6, align 8
  %8 = invoke noundef zeroext i1 @_ZN9QtPrivate20QStringList_containsEPK5QListI7QStringE11QStringViewN2Qt15CaseSensitivityE(ptr noundef nonnull align 1 dereferenceable_or_null(1) %3, i64 %7, ptr %5, i32 noundef 1)
          to label %_ZNK19QListSpecialMethodsI7QStringE8containsERKS0_N2Qt15CaseSensitivityE.exit unwind label %9

9:                                                ; preds = %2
  %10 = landingpad { ptr, i32 }
          catch ptr null
  %11 = extractvalue { ptr, i32 } %10, 0
  tail call void @__clang_call_terminate(ptr %11) #16
  unreachable

_ZNK19QListSpecialMethodsI7QStringE8containsERKS0_N2Qt15CaseSensitivityE.exit: ; preds = %2
  br i1 %8, label %15, label %12

12:                                               ; preds = %_ZNK19QListSpecialMethodsI7QStringE8containsERKS0_N2Qt15CaseSensitivityE.exit
  %13 = getelementptr inbounds nuw i8, ptr %0, i64 40
  %14 = load i64, ptr %13, align 8
  tail call void @_ZN9QtPrivate16QMovableArrayOpsI7QStringE7emplaceIJRKS1_EEEvxDpOT_(ptr noundef nonnull align 8 dereferenceable_or_null(24) %3, i64 noundef %14, ptr noundef align 8 dereferenceable(24) %1)
  br label %15

15:                                               ; preds = %12, %_ZNK19QListSpecialMethodsI7QStringE8containsERKS0_N2Qt15CaseSensitivityE.exit
  ret void
}